; Function Attrs: mustprogress uwtable
define hidden void @_ZN3sls12arith_plugin9get_valueEP4expr(ptr dead_on_unwind noalias writable sret(%class.obj_ref) align 8 %0, ptr noundef nonnull align 8 captures(none) dereferenceable(64) %1, ptr noundef %2) unnamed_addr #3 align 2 personality ptr @__gxx_personality_v0 {
  %4 = getelementptr inbounds nuw i8, ptr %1, i64 32
  %5 = load ptr, ptr %4, align 8, !tbaa !48
  %.not13 = icmp eq ptr %5, null
  br i1 %.not13, label %42, label %6

6:                                                ; preds = %3
  %7 = load ptr, ptr %5, align 8, !tbaa !3
  %8 = getelementptr inbounds nuw i8, ptr %7, i64 32
  %9 = load ptr, ptr %8, align 8
  invoke void %9(ptr dead_on_unwind writable sret(%class.obj_ref) align 8 %0, ptr noundef nonnull align 8 dereferenceable(672) %5, ptr noundef %2)
          to label %48 unwind label %10

10:                                               ; preds = %6
  %11 = landingpad { ptr, i32 }
          catch ptr @_ZTI18overflow_exception
  %12 = extractvalue { ptr, i32 } %11, 1
  %13 = tail call i32 @llvm.eh.typeid.for.p0(ptr nonnull @_ZTI18overflow_exception) #11
  %14 = icmp eq i32 %12, %13
  br i1 %14, label %15, label %49

15:                                               ; preds = %10
  %16 = extractvalue { ptr, i32 } %11, 0
  %17 = tail call ptr @__cxa_begin_catch(ptr %16) #11
  %18 = invoke noundef i32 @_Z19get_verbosity_levelv()
          to label %19 unwind label %30

19:                                               ; preds = %15
  %.not = icmp eq i32 %18, 0
  br i1 %.not, label %_ZStlsISt11char_traitsIcEERSt13basic_ostreamIcT_ES5_PKc.exit12, label %20

20:                                               ; preds = %19
  %21 = invoke noundef zeroext i1 @_Z11is_threadedv()
          to label %22 unwind label %30

22:                                               ; preds = %20
  br i1 %21, label %23, label %32

23:                                               ; preds = %22
  invoke void @_Z12verbose_lockv()
          to label %24 unwind label %30

24:                                               ; preds = %23
  %25 = invoke noundef nonnull align 8 dereferenceable(8) ptr @_Z14verbose_streamv()
          to label %26 unwind label %30

26:                                               ; preds = %24
  %27 = invoke noundef nonnull align 8 dereferenceable(8) ptr @_ZSt16__ostream_insertIcSt11char_traitsIcEERSt13basic_ostreamIT_T0_ES6_PKS3_l(ptr noundef nonnull align 8 dereferenceable(8) %25, ptr noundef nonnull @.str, i64 noundef 24)
          to label %_ZStlsISt11char_traitsIcEERSt13basic_ostreamIcT_ES5_PKc.exit unwind label %30

_ZStlsISt11char_traitsIcEERSt13basic_ostreamIcT_ES5_PKc.exit: ; preds = %26
  %28 = invoke noundef nonnull align 8 dereferenceable(8) ptr @_ZSt16__ostream_insertIcSt11char_traitsIcEERSt13basic_ostreamIT_T0_ES6_PKS3_l(ptr noundef nonnull align 8 dereferenceable(8) %25, ptr noundef nonnull @.str.3, i64 noundef 12)
          to label %_ZStlsISt11char_traitsIcEERSt13basic_ostreamIcT_ES5_PKc.exit8 unwind label %30

_ZStlsISt11char_traitsIcEERSt13basic_ostreamIcT_ES5_PKc.exit8: ; preds = %_ZStlsISt11char_traitsIcEERSt13basic_ostreamIcT_ES5_PKc.exit
  %29 = invoke noundef nonnull align 8 dereferenceable(8) ptr @_ZSt16__ostream_insertIcSt11char_traitsIcEERSt13basic_ostreamIT_T0_ES6_PKS3_l(ptr noundef nonnull align 8 dereferenceable(8) %25, ptr noundef nonnull @.str.2, i64 noundef 1)
          to label %_ZStlsISt11char_traitsIcEERSt13basic_ostreamIcT_ES5_PKc.exit9 unwind label %30

_ZStlsISt11char_traitsIcEERSt13basic_ostreamIcT_ES5_PKc.exit9: ; preds = %_ZStlsISt11char_traitsIcEERSt13basic_ostreamIcT_ES5_PKc.exit8
  invoke void @_Z14verbose_unlockv()
          to label %_ZStlsISt11char_traitsIcEERSt13basic_ostreamIcT_ES5_PKc.exit12 unwind label %30

30:                                               ; preds = %39, %_ZStlsISt11char_traitsIcEERSt13basic_ostreamIcT_ES5_PKc.exit11, %_ZStlsISt11char_traitsIcEERSt13basic_ostreamIcT_ES5_PKc.exit10, %34, %_ZStlsISt11char_traitsIcEERSt13basic_ostreamIcT_ES5_PKc.exit8, %_ZStlsISt11char_traitsIcEERSt13basic_ostreamIcT_ES5_PKc.exit, %26, %32, %_ZStlsISt11char_traitsIcEERSt13basic_ostreamIcT_ES5_PKc.exit9, %24, %23, %20, %15
  %31 = landingpad { ptr, i32 }
          cleanup
  invoke void @__cxa_end_catch()
          to label %49 unwind label %50

32:                                               ; preds = %22
  %33 = invoke noundef nonnull align 8 dereferenceable(8) ptr @_Z14verbose_streamv()
          to label %34 unwind label %30

34:                                               ; preds = %32
  %35 = invoke noundef nonnull align 8 dereferenceable(8) ptr @_ZSt16__ostream_insertIcSt11char_traitsIcEERSt13basic_ostreamIT_T0_ES6_PKS3_l(ptr noundef nonnull align 8 dereferenceable(8) %33, ptr noundef nonnull @.str, i64 noundef 24)
          to label %_ZStlsISt11char_traitsIcEERSt13basic_ostreamIcT_ES5_PKc.exit10 unwind label %30

_ZStlsISt11char_traitsIcEERSt13basic_ostreamIcT_ES5_PKc.exit10: ; preds = %34
  %36 = invoke noundef nonnull align 8 dereferenceable(8) ptr @_ZSt16__ostream_insertIcSt11char_traitsIcEERSt13basic_ostreamIT_T0_ES6_PKS3_l(ptr noundef nonnull align 8 dereferenceable(8) %33, ptr noundef nonnull @.str.3, i64 noundef 12)
          to label %_ZStlsISt11char_traitsIcEERSt13basic_ostreamIcT_ES5_PKc.exit11 unwind label %30

_ZStlsISt11char_traitsIcEERSt13basic_ostreamIcT_ES5_PKc.exit11: ; preds = %_ZStlsISt11char_traitsIcEERSt13basic_ostreamIcT_ES5_PKc.exit10
  %37 = invoke noundef nonnull align 8 dereferenceable(8) ptr @_ZSt16__ostream_insertIcSt11char_traitsIcEERSt13basic_ostreamIT_T0_ES6_PKS3_l(ptr noundef nonnull align 8 dereferenceable(8) %33, ptr noundef nonnull @.str.2, i64 noundef 1)
          to label %_ZStlsISt11char_traitsIcEERSt13basic_ostreamIcT_ES5_PKc.exit12 unwind label %30

_ZStlsISt11char_traitsIcEERSt13basic_ostreamIcT_ES5_PKc.exit12: ; preds = %_ZStlsISt11char_traitsIcEERSt13basic_ostreamIcT_ES5_PKc.exit11, %_ZStlsISt11char_traitsIcEERSt13basic_ostreamIcT_ES5_PKc.exit9, %19
  %38 = load ptr, ptr %4, align 8, !tbaa !48
  %.not.i.i = icmp eq ptr %38, null
  br i1 %.not.i.i, label %_ZN3sls12arith_plugin11init_backupEv.exit, label %39

39:                                               ; preds = %_ZStlsISt11char_traitsIcEERSt13basic_ostreamIcT_ES5_PKc.exit12
  %40 = load ptr, ptr %38, align 8, !tbaa !3
  %41 = load ptr, ptr %40, align 8
  tail call void %41(ptr noundef nonnull align 8 dereferenceable(672) %38) #11
  invoke void @_ZN6memory10deallocateEPv(ptr noundef nonnull %38)
          to label %.noexc unwind label %30

.noexc:                                           ; preds = %39
  store ptr null, ptr %4, align 8, !tbaa !48
  br label %_ZN3sls12arith_plugin11init_backupEv.exit

_ZN3sls12arith_plugin11init_backupEv.exit:        ; preds = %.noexc, %_ZStlsISt11char_traitsIcEERSt13basic_ostreamIcT_ES5_PKc.exit12
  tail call void @__cxa_end_catch()
  br label %42

42:                                               ; preds = %_ZN3sls12arith_plugin11init_backupEv.exit, %3
  %43 = getelementptr inbounds nuw i8, ptr %1, i64 40
  %44 = load ptr, ptr %43, align 8, !tbaa !51
  %45 = load ptr, ptr %44, align 8, !tbaa !3
  %46 = getelementptr inbounds nuw i8, ptr %45, i64 32
  %47 = load ptr, ptr %46, align 8
  tail call void %47(ptr dead_on_unwind writable sret(%class.obj_ref) align 8 %0, ptr noundef nonnull align 8 dereferenceable(792) %44, ptr noundef %2)
  br label %48

48:                                               ; preds = %6, %42
  ret void

49:                                               ; preds = %30, %10
  %.merged = phi { ptr, i32 } [ %11, %10 ], [ %31, %30 ]
  resume { ptr, i32 } %.merged

50:                                               ; preds = %30
  %51 = landingpad { ptr, i32 }
          catch ptr null
  %52 = extractvalue { ptr, i32 } %51, 0
  tail call void @__clang_call_terminate(ptr %52) #12
  unreachable
}